; Function Attrs: mustprogress nofree norecurse nosync nounwind willreturn memory(read, inaccessiblemem: none) uwtable
define dso_local noundef nonnull align 4 dereferenceable(8) ptr @_ZNK4Luau7CodeGen3A6413IrLoweringA647labelOpENS0_4IrOpE(ptr noundef nonnull readonly align 8 captures(none) dereferenceable(1497) %0, i32 %1) local_unnamed_addr #4 align 2 {
  %3 = getelementptr inbounds nuw i8, ptr %0, i64 16
  %4 = load ptr, ptr %3, align 8, !tbaa !64
  %5 = lshr i32 %1, 4
  %6 = zext nneg i32 %5 to i64
  %7 = load ptr, ptr %4, align 8, !tbaa !71
  %8 = getelementptr inbounds nuw %"struct.Luau::CodeGen::IrBlock", ptr %7, i64 %6, i32 7
  ret ptr %8
}